target datalayout = "e-m:e-p270:32:32-p271:32:32-p272:64:64-i64:64-i128:128-f80:128-n8:16:32:64-S128"
target triple = "x86_64-pc-linux-gnu"

%"class.smt::conflict_resolution" = type <{ ptr, ptr, ptr, ptr, ptr, ptr, i32, [4 x i8], %class.svector, %class.ref_vector, i32, i32, %class.ptr_vector.1, i32, [4 x i8], %class.svector.3, %class.obj_pair_set, ptr, ptr, %class.svector.5, %class.obj_map, %class.obj_pair_map, %class.map, %class.ref_vector.15, %class.ref_vector.20, %class.obj_ref, %class.svector, %class.svector, %class.svector.25, %class.svector.25, %class.approx_set_tpl, [4 x i8] }>
%class.ref_vector = type { %class.ref_vector_core }
%class.ref_vector_core = type { %class.ref_manager_wrapper, %class.ptr_vector }
%class.ref_manager_wrapper = type { ptr }
%class.ptr_vector = type { %class.vector.0 }
%class.vector.0 = type { ptr }
%class.ptr_vector.1 = type { %class.vector.2 }
%class.vector.2 = type { ptr }
%class.svector.3 = type { %class.vector.4 }
%class.vector.4 = type { ptr }
%class.obj_pair_set = type { %class.chashtable }
%class.chashtable = type { ptr, i32, i32, i32, i32, i32, i32, i32, ptr, ptr, ptr }
%class.svector.5 = type { %class.vector.6 }
%class.vector.6 = type { ptr }
%class.obj_map = type { %class.core_hashtable }
%class.core_hashtable = type <{ ptr, i32, i32, i32, [4 x i8] }>
%class.obj_pair_map = type { %class.core_hashtable.7 }
%class.core_hashtable.7 = type <{ ptr, i32, i32, i32, [4 x i8] }>
%class.map = type { %class.table2map }
%class.table2map = type { %class.core_hashtable.11 }
%class.core_hashtable.11 = type <{ ptr, i32, i32, i32, [4 x i8] }>
%class.ref_vector.15 = type { %class.ref_vector_core.16 }
%class.ref_vector_core.16 = type { %class.ref_manager_wrapper.17, %class.ptr_vector.18 }
%class.ref_manager_wrapper.17 = type { ptr }
%class.ptr_vector.18 = type { %class.vector.19 }
%class.vector.19 = type { ptr }
%class.ref_vector.20 = type { %class.ref_vector_core.21 }
%class.ref_vector_core.21 = type { %class.ref_manager_wrapper.22, %class.ptr_vector.23 }
%class.ref_manager_wrapper.22 = type { ptr }
%class.ptr_vector.23 = type { %class.vector.24 }
%class.vector.24 = type { ptr }
%class.obj_ref = type { ptr, ptr }
%class.svector = type { %class.vector }
%class.vector = type { ptr }
%class.svector.25 = type { %class.vector.26 }
%class.vector.26 = type { ptr }
%class.approx_set_tpl = type { i32 }
%"struct.std::pair" = type { ptr, ptr }

; Function Attrs: mustprogress uwtable
define linkonce_odr hidden noundef nonnull align 8 dereferenceable(8) ptr @_ZN6vectorISt4pairIPN3smt5enodeES3_ELb0EjE9push_backEOS4_(ptr noundef nonnull align 8 dereferenceable(8) %0, ptr noundef nonnull align 8 dereferenceable(16) %1) #6 comdat align 2 {
  %3 = alloca ptr, align 8
  %4 = alloca ptr, align 8
  store ptr %0, ptr %3, align 8, !tbaa !136
  store ptr %1, ptr %4, align 8, !tbaa !213
  %5 = load ptr, ptr %3, align 8
  %6 = getelementptr inbounds nuw %class.vector.4, ptr %5, i32 0, i32 0
  %7 = load ptr, ptr %6, align 8, !tbaa !210
  %8 = icmp eq ptr %7, null
  br i1 %8, label %19, label %9

9:                                                ; preds = %2
  %10 = getelementptr inbounds nuw %class.vector.4, ptr %5, i32 0, i32 0
  %11 = load ptr, ptr %10, align 8, !tbaa !210
  %12 = getelementptr inbounds i32, ptr %11, i64 -1
  %13 = load i32, ptr %12, align 4, !tbaa !8
  %14 = getelementptr inbounds nuw %class.vector.4, ptr %5, i32 0, i32 0
  %15 = load ptr, ptr %14, align 8, !tbaa !210
  %16 = getelementptr inbounds i32, ptr %15, i64 -2
  %17 = load i32, ptr %16, align 4, !tbaa !8
  %18 = icmp eq i32 %13, %17
  br i1 %18, label %19, label %20

19:                                               ; preds = %9, %2
  call void @_ZN6vectorISt4pairIPN3smt5enodeES3_ELb0EjE13expand_vectorEv(ptr noundef nonnull align 8 dereferenceable(8) %5)
  br label %20

20:                                               ; preds = %19, %9
  %21 = getelementptr inbounds nuw %class.vector.4, ptr %5, i32 0, i32 0
  %22 = load ptr, ptr %21, align 8, !tbaa !210
  %23 = getelementptr inbounds nuw %class.vector.4, ptr %5, i32 0, i32 0
  %24 = load ptr, ptr %23, align 8, !tbaa !210
  %25 = getelementptr inbounds i32, ptr %24, i64 -1
  %26 = load i32, ptr %25, align 4, !tbaa !8
  %27 = zext i32 %26 to i64
  %28 = getelementptr inbounds nuw %"struct.std::pair", ptr %22, i64 %27
  %29 = load ptr, ptr %4, align 8, !tbaa !213
  call void @llvm.memcpy.p0.p0.i64(ptr align 8 %28, ptr align 8 %29, i64 16, i1 false)
  %30 = getelementptr inbounds nuw %class.vector.4, ptr %5, i32 0, i32 0
  %31 = load ptr, ptr %30, align 8, !tbaa !210
  %32 = getelementptr inbounds i32, ptr %31, i64 -1
  %33 = load i32, ptr %32, align 4, !tbaa !8
  %34 = add i32 %33, 1
  store i32 %34, ptr %32, align 4, !tbaa !8
  ret ptr %5
}

; Function Attrs: mustprogress nounwind uwtable
define linkonce_odr hidden void @_ZNSt4pairIPN3smt5enodeES2_EC2IRS2_S5_Qcl16_S_constructibleITL0__TL0_0_EEEEOT_OT0_(ptr noundef nonnull align 8 dereferenceable(16) %0, ptr noundef nonnull align 8 dereferenceable(8) %1, ptr noundef nonnull align 8 dereferenceable(8) %2) unnamed_addr #4 comdat align 2 {
  %4 = alloca ptr, align 8
  %5 = alloca ptr, align 8
  %6 = alloca ptr, align 8
  store ptr %0, ptr %4, align 8, !tbaa !213
  store ptr %1, ptr %5, align 8, !tbaa !214
  store ptr %2, ptr %6, align 8, !tbaa !214
  %7 = load ptr, ptr %4, align 8
  %8 = getelementptr inbounds nuw %"struct.std::pair", ptr %7, i32 0, i32 0
  %9 = load ptr, ptr %5, align 8, !tbaa !214
  %10 = load ptr, ptr %9, align 8, !tbaa !144
  store ptr %10, ptr %8, align 8, !tbaa !204
  %11 = getelementptr inbounds nuw %"struct.std::pair", ptr %7, i32 0, i32 1
  %12 = load ptr, ptr %6, align 8, !tbaa !214
  %13 = load ptr, ptr %12, align 8, !tbaa !144
  store ptr %13, ptr %11, align 8, !tbaa !206
  ret void
}

; Function Attrs: mustprogress uwtable
define hidden void @_ZN3smt19conflict_resolution11eq2literalsEPNS_5enodeES2_R7svectorIN3sat7literalEjE(ptr noundef nonnull align 8 dereferenceable(356) %0, ptr noundef %1, ptr noundef %2, ptr noundef nonnull align 8 dereferenceable(8) %3) #6 align 2 {
  %5 = alloca ptr, align 8
  %6 = alloca ptr, align 8
  %7 = alloca ptr, align 8
  %8 = alloca ptr, align 8
  %9 = alloca %"struct.std::pair", align 8
  store ptr %0, ptr %5, align 8, !tbaa !28
  store ptr %1, ptr %6, align 8, !tbaa !144
  store ptr %2, ptr %7, align 8, !tbaa !144
  store ptr %3, ptr %8, align 8, !tbaa !38
  %10 = load ptr, ptr %5, align 8
  %11 = load ptr, ptr %8, align 8, !tbaa !38
  %12 = getelementptr inbounds nuw %"class.smt::conflict_resolution", ptr %10, i32 0, i32 17
  store ptr %11, ptr %12, align 8, !tbaa !95
  %13 = getelementptr inbounds nuw %"class.smt::conflict_resolution", ptr %10, i32 0, i32 15
  call void @llvm.lifetime.start.p0(i64 16, ptr %9) #3
  call void @_ZNSt4pairIPN3smt5enodeES2_EC2IRS2_S5_Qcl16_S_constructibleITL0__TL0_0_EEEEOT_OT0_(ptr noundef nonnull align 8 dereferenceable(16) %9, ptr noundef nonnull align 8 dereferenceable(8) %6, ptr noundef nonnull align 8 dereferenceable(8) %7) #3
  %14 = call noundef nonnull align 8 dereferenceable(8) ptr @_ZN6vectorISt4pairIPN3smt5enodeES3_ELb0EjE9push_backEOS4_(ptr noundef nonnull align 8 dereferenceable(8) %13, ptr noundef nonnull align 8 dereferenceable(16) %9)
  call void @llvm.lifetime.end.p0(i64 16, ptr %9) #3
  call void @_ZN3smt19conflict_resolution22process_justificationsEv(ptr noundef nonnull align 8 dereferenceable(356) %10)
  call void @_ZN3smt19conflict_resolution21unmark_justificationsEj(ptr noundef nonnull align 8 dereferenceable(356) %10, i32 noundef 0)
  ret void
}