; Function Attrs: mustprogress uwtable
define hidden void @_ZN3smt19conflict_resolution11eq2literalsEPNS_5enodeES2_R7svectorIN3sat7literalEjE(ptr noundef nonnull align 8 dereferenceable(356) initializes((176, 184)) %0, ptr noundef %1, ptr noundef %2, ptr noundef nonnull align 8 dereferenceable(8) %3) local_unnamed_addr #4 align 2 {
  %5 = getelementptr inbounds nuw i8, ptr %0, i64 176
  store ptr %3, ptr %5, align 8, !tbaa !140
  %6 = getelementptr inbounds nuw i8, ptr %0, i64 104
  %7 = load ptr, ptr %6, align 8, !tbaa !75
  %8 = icmp eq ptr %7, null
  br i1 %8, label %15, label %9

9:                                                ; preds = %4
  %10 = getelementptr inbounds i8, ptr %7, i64 -4
  %11 = load i32, ptr %10, align 4, !tbaa !117
  %12 = getelementptr inbounds i8, ptr %7, i64 -8
  %13 = load i32, ptr %12, align 4, !tbaa !117
  %14 = icmp eq i32 %11, %13
  br i1 %14, label %15, label %_ZN6vectorISt4pairIPN3smt5enodeES3_ELb0EjE9push_backEOS4_.exit

15:                                               ; preds = %9, %4
  tail call void @_ZN6vectorISt4pairIPN3smt5enodeES3_ELb0EjE13expand_vectorEv(ptr noundef nonnull align 8 dereferenceable(8) %6)
  %.pre.i = load ptr, ptr %6, align 8, !tbaa !75
  %.phi.trans.insert.i = getelementptr inbounds i8, ptr %.pre.i, i64 -4
  %.pre2.i = load i32, ptr %.phi.trans.insert.i, align 4, !tbaa !117
  br label %_ZN6vectorISt4pairIPN3smt5enodeES3_ELb0EjE9push_backEOS4_.exit

_ZN6vectorISt4pairIPN3smt5enodeES3_ELb0EjE9push_backEOS4_.exit: ; preds = %9, %15
  %16 = phi i32 [ %.pre2.i, %15 ], [ %11, %9 ]
  %17 = phi ptr [ %.pre.i, %15 ], [ %7, %9 ]
  %18 = zext i32 %16 to i64
  %19 = getelementptr inbounds nuw %"struct.std::pair", ptr %17, i64 %18
  store ptr %1, ptr %19, align 8
  %.sroa.4.0..sroa_idx = getelementptr inbounds nuw i8, ptr %19, i64 8
  store ptr %2, ptr %.sroa.4.0..sroa_idx, align 8
  %20 = load ptr, ptr %6, align 8, !tbaa !75
  %21 = getelementptr inbounds i8, ptr %20, i64 -4
  %22 = load i32, ptr %21, align 4, !tbaa !117
  %23 = add i32 %22, 1
  store i32 %23, ptr %21, align 4, !tbaa !117
  tail call void @_ZN3smt19conflict_resolution22process_justificationsEv(ptr noundef nonnull align 8 dereferenceable(356) %0)
  tail call void @_ZN3smt19conflict_resolution21unmark_justificationsEj(ptr noundef nonnull align 8 dereferenceable(356) %0, i32 noundef 0)
  ret void
}